Certificate:
    Data:
        Version: 3 (0x2)
        Serial Number: 1 (0x1)
        Signature Algorithm: sha256WithRSAEncryption
        Issuer: C=FR, O=Echosens, OU=Fsppe, CN=Echosens CA, ST=France, L=Paris
        Validity
            Not Before: Jun  4 08:48:23 2021 GMT
            Not After : May  5 08:48:23 2023 GMT
        Subject: C=FR, ST=France, L=Paris, O=Echosens, OU=Fsppe, CN=Echosens
        Subject Public Key Info:
            Public Key Algorithm: rsaEncryption
                RSA Public-Key: (2048 bit)
                Modulus:
                    00:e4:d5:d2:b1:85:6e:17:87:3d:5d:ce:dc:38:49:
                    39:76:ad:b1:2f:ae:83:b6:76:52:65:45:e9:59:a6:
                    10:ea:44:ad:7e:99:67:21:a1:4f:df:3e:24:c3:77:
                    91:38:b8:ff:1a:6d:cd:92:52:6b:a8:ce:3e:94:77:
                    dd:eb:2a:c9:70:18:65:54:91:d4:d7:4f:b6:f7:e9:
                    cb:4b:a0:04:67:8b:3f:e5:95:81:a5:06:5a:57:1e:
                    43:e8:3c:22:8a:68:8f:f1:76:a3:58:24:05:91:e7:
                    71:0c:85:51:25:1a:3a:d9:64:64:39:19:7e:c6:aa:
                    44:4f:6c:90:51:6b:58:c6:82:5a:1d:bd:2e:b5:66:
                    8b:b9:2c:55:66:08:8c:91:4a:d6:2e:5c:a4:f7:77:
                    93:65:46:dd:03:d6:a4:d9:93:9d:6e:a6:c9:13:f5:
                    c7:5b:8d:2b:35:36:26:d3:00:06:71:7b:7d:2c:23:
                    d4:01:7c:77:c1:3e:17:ee:d0:e4:e0:45:c6:41:3c:
                    85:07:9f:51:4c:13:3c:2a:04:3a:6f:e8:e2:06:07:
                    7f:4c:ae:93:63:e9:7b:c9:db:e4:70:3c:09:da:03:
                    76:45:fc:42:5b:dd:5a:d0:89:8c:25:ad:8e:4d:cb:
                    47:46:68:60:99:3d:f1:5e:57:0b:b1:30:4a:95:9e:
                    50:a5
                Exponent: 65537 (0x10001)
        X509v3 extensions:
            X509v3 Subject Key Identifier: 
                46:E9:45:8A:3B:32:53:79:60:C4:F7:C7:DD:58:5A:D2:A2:52:E9:5D
            X509v3 Authority Key Identifier: 
                keyid:3F:D4:DD:FB:F7:72:01:4D:3F:0D:0F:55:16:8A:14:13:1D:F4:3C:BD
                DirName:/C=FR/O=Echosens/OU=Fsppe/CN=Echosens CA/ST=France/L=Paris
                serial:08:C8:E9:EA:29:ED:AC:44:05:62:80:FE:7A:99:61:F1:8E:CB:65:EF

            X509v3 Issuer Alternative Name: 
                <EMPTY>

            X509v3 Subject Alternative Name: critical
                DirName:/C=FR/O=Echosens/OU=Fsppe/CN=Echosens/ST=France/L=Paris
            X509v3 Basic Constraints: critical
                CA:FALSE
            X509v3 Key Usage: critical
                Digital Signature, Key Encipherment
            Netscape CA Revocation Url: 
                http://www.fake_crl_url.fr
    Signature Algorithm: sha256WithRSAEncryption
         45:b9:7f:94:64:03:68:a6:a3:0b:05:5b:16:d5:10:b9:50:bb:
         85:4c:de:5c:f3:da:98:e9:b2:29:e0:73:67:2b:52:cf:ac:ce:
         0a:d5:6d:35:f6:a3:75:16:5b:f1:5c:f6:23:23:3e:69:10:33:
         34:9b:d9:94:98:4a:00:bf:25:7a:07:9f:36:27:65:0a:e6:60:
         2c:1c:77:8f:9a:1d:e0:84:14:9c:9b:39:f0:04:95:20:58:f9:
         95:39:d6:fb:ec:a0:77:a8:f5:8f:5b:0a:91:82:b4:ce:4a:48:
         b5:f5:1d:ad:6f:5b:03:98:3e:29:8d:a8:0f:66:d8:0f:64:87:
         ee:64:fc:29:bd:ab:0c:d8:d9:1d:2b:82:0b:3a:7f:5f:d1:6a:
         ed:86:a1:01:50:c2:9f:de:76:d3:a1:56:8f:b5:0c:7c:70:9c:
         68:84:a7:88:c4:f2:e1:8d:24:28:b5:fd:2d:1f:a0:7d:ea:2e:
         12:3e:44:86:cd:14:db:a9:d8:05:ea:29:af:04:25:df:14:e6:
         34:02:d2:ab:c1:f4:c0:2f:8e:04:2b:8a:31:48:15:be:54:30:
         af:12:b7:47:44:6e:c7:83:b2:c0:12:89:48:0e:a9:3a:d2:90:
         52:59:01:ff:f3:53:85:a5:5e:9e:9e:b4:0b:f6:f7:02:ad:a2:
         8c:43:e9:9e
-----BEGIN CERTIFICATE-----
MIIE3DCCA8SgAwIBAgIBATANBgkqhkiG9w0BAQsFADBnMQswCQYDVQQGEwJGUjER
MA8GA1UECgwIRWNob3NlbnMxDjAMBgNVBAsMBUZzcHBlMRQwEgYDVQQDDAtFY2hv
c2VucyBDQTEPMA0GA1UECAwGRnJhbmNlMQ4wDAYDVQQHDAVQYXJpczAeFw0yMTA2
MDQwODQ4MjNaFw0yMzA1MDUwODQ4MjNaMGQxCzAJBgNVBAYTAkZSMQ8wDQYDVQQI
DAZGcmFuY2UxDjAMBgNVBAcMBVBhcmlzMREwDwYDVQQKDAhFY2hvc2VuczEOMAwG
A1UECwwFRnNwcGUxETAPBgNVBAMMCEVjaG9zZW5zMIIBIjANBgkqhkiG9w0BAQEF
AAOCAQ8AMIIBCgKCAQEA5NXSsYVuF4c9Xc7cOEk5dq2xL66DtnZSZUXpWaYQ6kSt
fplnIaFP3z4kw3eROLj/Gm3NklJrqM4+lHfd6yrJcBhlVJHU10+29+nLS6AEZ4s/
5ZWBpQZaVx5D6DwiimiP8XajWCQFkedxDIVRJRo62WRkORl+xqpET2yQUWtYxoJa
Hb0utWaLuSxVZgiMkUrWLlyk93eTZUbdA9ak2ZOdbqbJE/XHW40rNTYm0wAGcXt9
LCPUAXx3wT4X7tDk4EXGQTyFB59RTBM8KgQ6b+jiBgd/TK6TY+l7ydvkcDwJ2gN2
RfxCW91a0ImMJa2OTctHRmhgmT3xXlcLsTBKlZ5QpQIDAQABo4IBlDCCAZAwHQYD
VR0OBBYEFEbpRYo7MlN5YMT3x91YWtKiUuldMIGkBgNVHSMEgZwwgZmAFD/U3fv3
cgFNPw0PVRaKFBMd9Dy9oWukaTBnMQswCQYDVQQGEwJGUjERMA8GA1UECgwIRWNo
b3NlbnMxDjAMBgNVBAsMBUZzcHBlMRQwEgYDVQQDDAtFY2hvc2VucyBDQTEPMA0G
A1UECAwGRnJhbmNlMQ4wDAYDVQQHDAVQYXJpc4IUCMjp6intrEQFYoD+eplh8Y7L
Ze8wCQYDVR0SBAIwADB0BgNVHREBAf8EajBopGYwZDELMAkGA1UEBhMCRlIxETAP
BgNVBAoMCEVjaG9zZW5zMQ4wDAYDVQQLDAVGc3BwZTERMA8GA1UEAwwIRWNob3Nl
bnMxDzANBgNVBAgMBkZyYW5jZTEOMAwGA1UEBwwFUGFyaXMwDAYDVR0TAQH/BAIw
ADAOBgNVHQ8BAf8EBAMCBaAwKQYJYIZIAYb4QgEEBBwWGmh0dHA6Ly93d3cuZmFr
ZV9jcmxfdXJsLmZyMA0GCSqGSIb3DQEBCwUAA4IBAQBFuX+UZANopqMLBVsW1RC5
ULuFTN5c89qY6bIp4HNnK1LPrM4K1W019qN1FlvxXPYjIz5pEDM0m9mUmEoAvyV6
B582J2UK5mAsHHePmh3ghBScmznwBJUgWPmVOdb77KB3qPWPWwqRgrTOSki19R2t
b1sDmD4pjagPZtgPZIfuZPwpvasM2NkdK4ILOn9f0WrthqEBUMKf3nbToVaPtQx8
cJxohKeIxPLhjSQotf0tH6B96i4SPkSGzRTbqdgF6imvBCXfFOY0AtKrwfTAL44E
K4oxSBW+VDCvErdHRG7Hg7LAEolIDqk60pBSWQH/81OFpV6enrQL9vcCraKMQ+me
-----END CERTIFICATE-----
