Certificate:
    Data:
        Version: 3 (0x2)
        Serial Number: 3 (0x3)
        Signature Algorithm: sha256WithRSAEncryption
        Issuer: C=FR, O=Echosens, OU=Fsppe, CN=Echosens CA, ST=France, L=Paris
        Validity
            Not Before: Jun  4 08:48:24 2021 GMT
            Not After : May  5 08:48:24 2023 GMT
        Subject: C=FR, ST=France, L=Paris, O=Echosens, OU=Fsppe, CN=Echosens
        Subject Public Key Info:
            Public Key Algorithm: rsaEncryption
                RSA Public-Key: (2048 bit)
                Modulus:
                    00:e5:8d:61:aa:64:65:c6:49:6a:0d:5b:ac:2c:73:
                    67:00:08:44:17:35:cd:72:e7:0b:8f:e7:1e:7a:43:
                    a7:73:74:86:bc:fc:cf:45:3a:bd:5b:45:a2:a7:4a:
                    da:cb:f3:a7:4f:50:4b:b9:84:ce:5e:d7:7a:d2:f4:
                    be:b8:75:02:4f:b3:72:8d:41:61:51:e4:59:42:1b:
                    44:64:78:35:16:7a:42:12:d4:a8:55:b5:bd:3b:2b:
                    a9:65:87:c2:30:15:dd:ef:0d:bf:ab:54:da:b1:f6:
                    bc:e5:73:6f:f2:29:14:47:1c:92:d8:6d:33:61:28:
                    88:9e:d7:0f:8a:61:3b:fc:26:82:5c:0b:80:5a:19:
                    86:5c:96:55:ca:ae:61:73:0e:d1:c5:8c:f7:65:87:
                    9e:1c:00:64:46:4c:10:72:db:6f:34:41:0b:e7:bd:
                    e8:9c:4b:05:87:fb:75:67:9e:5b:fd:8c:43:00:a0:
                    f2:18:a0:81:95:67:79:a6:0f:0d:4a:32:6b:d0:af:
                    ea:c2:9d:dd:2f:6f:fe:45:99:d3:b4:83:26:07:3b:
                    5c:86:d9:da:c0:6d:cd:31:4b:29:b5:22:19:d2:20:
                    ec:8c:44:bc:54:e7:54:d5:e0:85:9c:14:57:d0:61:
                    1e:9e:7f:56:34:f9:e3:ef:7d:d4:82:68:2a:2e:5b:
                    28:4f
                Exponent: 65537 (0x10001)
        X509v3 extensions:
            X509v3 Subject Key Identifier: 
                3A:4F:DF:C9:A3:59:5D:C0:7F:C6:52:A4:21:40:E3:A7:B1:03:77:3B
            X509v3 Authority Key Identifier: 
                keyid:3F:D4:DD:FB:F7:72:01:4D:3F:0D:0F:55:16:8A:14:13:1D:F4:3C:BD
                DirName:/C=FR/O=Echosens/OU=Fsppe/CN=Echosens CA/ST=France/L=Paris
                serial:08:C8:E9:EA:29:ED:AC:44:05:62:80:FE:7A:99:61:F1:8E:CB:65:EF

            X509v3 Issuer Alternative Name: 
                <EMPTY>

            X509v3 Subject Alternative Name: critical
                DirName:/C=FR/O=Echosens/OU=FsppeEnc/CN=Echosens/ST=France/L=Paris
            X509v3 Basic Constraints: critical
                CA:FALSE
            X509v3 Key Usage: critical
                Digital Signature, Key Encipherment
            Netscape CA Revocation Url: 
                http://www.fake_crl_url.fr
            Netscape Comment: 
                502f03f3-4b3d-4d2e-9306-163031334cce
    Signature Algorithm: sha256WithRSAEncryption
         aa:9d:a8:8e:b8:3c:de:ca:da:e5:c0:f0:97:4e:07:93:12:a5:
         9f:d0:b4:15:ce:2b:22:5c:5a:e1:82:73:11:82:ea:f3:0e:5a:
         57:3a:04:2c:75:c8:2d:99:cb:e5:cb:c2:7b:f2:db:c2:3c:a0:
         60:c2:9d:bb:59:72:d4:0f:d1:24:e5:ba:38:42:e0:1e:fe:bb:
         22:4f:81:6d:33:fc:93:42:38:bc:b7:96:d2:13:8b:00:fe:e4:
         f8:e9:c5:c4:2e:b9:68:0f:f3:6f:fc:66:bc:17:6f:a3:e9:7e:
         a0:3d:0f:7e:a6:a8:1d:ba:55:b1:6f:ef:e4:1b:ee:99:93:b5:
         f9:6a:a1:7e:10:4d:74:88:85:80:93:d4:6e:ee:ba:a2:10:32:
         4d:ce:40:6a:fb:52:eb:32:17:a0:f1:5f:11:12:02:2c:04:cb:
         f2:68:c7:b3:3a:39:8d:81:71:96:07:8f:18:41:3d:9e:86:47:
         db:b8:71:b7:12:27:c2:84:70:72:14:68:ea:db:99:0c:7a:c6:
         2b:fa:4c:dc:2b:46:68:65:01:f4:ca:e7:38:b9:47:87:2a:62:
         3d:d2:3c:05:c1:6d:7d:a7:0a:a0:ce:31:16:50:72:f2:9d:2d:
         68:b4:a7:66:ca:31:2d:84:25:b6:45:62:b5:92:7d:52:dd:a9:
         05:8c:b0:41
-----BEGIN CERTIFICATE-----
MIIFFDCCA/ygAwIBAgIBAzANBgkqhkiG9w0BAQsFADBnMQswCQYDVQQGEwJGUjER
MA8GA1UECgwIRWNob3NlbnMxDjAMBgNVBAsMBUZzcHBlMRQwEgYDVQQDDAtFY2hv
c2VucyBDQTEPMA0GA1UECAwGRnJhbmNlMQ4wDAYDVQQHDAVQYXJpczAeFw0yMTA2
MDQwODQ4MjRaFw0yMzA1MDUwODQ4MjRaMGQxCzAJBgNVBAYTAkZSMQ8wDQYDVQQI
DAZGcmFuY2UxDjAMBgNVBAcMBVBhcmlzMREwDwYDVQQKDAhFY2hvc2VuczEOMAwG
A1UECwwFRnNwcGUxETAPBgNVBAMMCEVjaG9zZW5zMIIBIjANBgkqhkiG9w0BAQEF
AAOCAQ8AMIIBCgKCAQEA5Y1hqmRlxklqDVusLHNnAAhEFzXNcucLj+ceekOnc3SG
vPzPRTq9W0Wip0ray/OnT1BLuYTOXtd60vS+uHUCT7NyjUFhUeRZQhtEZHg1FnpC
EtSoVbW9OyupZYfCMBXd7w2/q1Tasfa85XNv8ikURxyS2G0zYSiIntcPimE7/CaC
XAuAWhmGXJZVyq5hcw7RxYz3ZYeeHABkRkwQcttvNEEL573onEsFh/t1Z55b/YxD
AKDyGKCBlWd5pg8NSjJr0K/qwp3dL2/+RZnTtIMmBztchtnawG3NMUsptSIZ0iDs
jES8VOdU1eCFnBRX0GEenn9WNPnj733UgmgqLlsoTwIDAQABo4IBzDCCAcgwHQYD
VR0OBBYEFDpP38mjWV3Af8ZSpCFA46exA3c7MIGkBgNVHSMEgZwwgZmAFD/U3fv3
cgFNPw0PVRaKFBMd9Dy9oWukaTBnMQswCQYDVQQGEwJGUjERMA8GA1UECgwIRWNo
b3NlbnMxDjAMBgNVBAsMBUZzcHBlMRQwEgYDVQQDDAtFY2hvc2VucyBDQTEPMA0G
A1UECAwGRnJhbmNlMQ4wDAYDVQQHDAVQYXJpc4IUCMjp6intrEQFYoD+eplh8Y7L
Ze8wCQYDVR0SBAIwADB3BgNVHREBAf8EbTBrpGkwZzELMAkGA1UEBhMCRlIxETAP
BgNVBAoMCEVjaG9zZW5zMREwDwYDVQQLDAhGc3BwZUVuYzERMA8GA1UEAwwIRWNo
b3NlbnMxDzANBgNVBAgMBkZyYW5jZTEOMAwGA1UEBwwFUGFyaXMwDAYDVR0TAQH/
BAIwADAOBgNVHQ8BAf8EBAMCBaAwKQYJYIZIAYb4QgEEBBwWGmh0dHA6Ly93d3cu
ZmFrZV9jcmxfdXJsLmZyMDMGCWCGSAGG+EIBDQQmFiQ1MDJmMDNmMy00YjNkLTRk
MmUtOTMwNi0xNjMwMzEzMzRjY2UwDQYJKoZIhvcNAQELBQADggEBAKqdqI64PN7K
2uXA8JdOB5MSpZ/QtBXOKyJcWuGCcxGC6vMOWlc6BCx1yC2Zy+XLwnvy28I8oGDC
nbtZctQP0STlujhC4B7+uyJPgW0z/JNCOLy3ltITiwD+5PjpxcQuuWgP82/8ZrwX
b6PpfqA9D36mqB26VbFv7+Qb7pmTtflqoX4QTXSIhYCT1G7uuqIQMk3OQGr7Uusy
F6DxXxESAiwEy/Jox7M6OY2BcZYHjxhBPZ6GR9u4cbcSJ8KEcHIUaOrbmQx6xiv6
TNwrRmhlAfTK5zi5R4cqYj3SPAXBbX2nCqDOMRZQcvKdLWi0p2bKMS2EJbZFYrWS
fVLdqQWMsEE=
-----END CERTIFICATE-----
