Certificate:
    Data:
        Version: 3 (0x2)
        Serial Number: 4 (0x4)
        Signature Algorithm: sha256WithRSAEncryption
        Issuer: C=FR, O=Echosens, OU=Fsppe, CN=Echosens CA, ST=France, L=Paris
        Validity
            Not Before: Jun  4 08:48:24 2021 GMT
            Not After : May  5 08:48:24 2023 GMT
        Subject: C=FR, ST=France, L=Paris, O=Echosens, OU=Fsppe, CN=Echosens
        Subject Public Key Info:
            Public Key Algorithm: rsaEncryption
                RSA Public-Key: (2048 bit)
                Modulus:
                    00:da:94:2b:ba:38:19:29:4e:12:bc:3f:9a:6c:e6:
                    2b:64:f7:aa:c5:86:f6:cc:40:64:86:95:b8:a1:02:
                    be:40:1c:ac:f6:fa:4e:a3:3a:93:4f:08:14:80:3a:
                    48:41:97:fc:80:51:6b:0d:b4:55:a9:97:ff:e7:2a:
                    99:2d:c9:ea:79:57:2d:ad:70:8f:eb:3a:cb:14:eb:
                    40:d0:6c:8f:68:10:1b:01:ea:a3:a2:33:d4:5e:c0:
                    2b:40:cf:00:ba:d8:11:1d:42:6e:ca:be:2e:a6:ba:
                    98:ae:ee:32:8a:8a:61:b0:4c:f6:1a:ef:d0:ac:84:
                    9c:0a:85:cc:6d:40:bc:b2:c3:51:e2:1a:57:17:c3:
                    2a:1b:98:4a:98:e5:f8:2d:88:78:f5:9f:0e:fd:d2:
                    49:f3:ac:b7:cc:78:5d:c2:f5:cf:0e:b6:b8:6e:16:
                    f0:c7:6b:c3:4b:18:78:24:99:f7:18:6c:e3:0f:35:
                    50:29:17:45:9d:2e:2f:a1:94:2d:16:2b:ac:e2:12:
                    71:46:86:0d:27:c5:0c:d1:58:d9:2a:1e:00:30:4c:
                    47:2a:ec:03:ea:79:7b:c4:f5:ab:28:f9:09:bd:9a:
                    a8:05:a5:77:61:f9:4b:10:c3:02:75:0f:6f:08:93:
                    30:f0:bf:09:19:a3:00:58:ff:96:d2:e3:bb:1b:40:
                    ad:85
                Exponent: 65537 (0x10001)
        X509v3 extensions:
            X509v3 Subject Key Identifier: 
                D3:68:63:AC:24:A2:FF:5A:FD:DD:72:CF:55:3F:C3:DA:BF:29:C0:FD
            X509v3 Authority Key Identifier: 
                keyid:3F:D4:DD:FB:F7:72:01:4D:3F:0D:0F:55:16:8A:14:13:1D:F4:3C:BD
                DirName:/C=FR/O=Echosens/OU=Fsppe/CN=Echosens CA/ST=France/L=Paris
                serial:08:C8:E9:EA:29:ED:AC:44:05:62:80:FE:7A:99:61:F1:8E:CB:65:EF

            X509v3 Issuer Alternative Name: 
                <EMPTY>

            X509v3 Subject Alternative Name: critical
                DirName:/C=FR/O=Echosens/OU=Fsppe/CN=Echosens/ST=France/L=Paris
            X509v3 Basic Constraints: critical
                CA:FALSE
            X509v3 Key Usage: critical
                Digital Signature, Key Encipherment
            Netscape CA Revocation Url: 
                http://www.fake_crl_url.fr
    Signature Algorithm: sha256WithRSAEncryption
         a9:b9:03:17:ec:2c:9b:a4:84:04:9e:24:6b:15:66:1a:20:12:
         44:82:15:3b:d1:86:ba:52:a7:f2:48:f8:54:0a:ad:de:19:e9:
         07:42:fc:4d:72:91:25:f3:1b:fc:86:bf:13:fb:ff:a0:13:d5:
         d8:6e:d7:82:86:49:4f:f4:01:11:d3:f3:66:d6:51:a8:5c:6d:
         68:6d:38:ca:78:e4:d7:7c:44:1c:68:b6:36:e4:88:a2:f3:2f:
         fc:01:4f:67:bd:38:09:f4:85:bd:3e:45:3b:6b:65:07:12:09:
         eb:60:95:1d:fe:1d:2c:c3:b5:4d:37:81:95:38:c4:28:1a:cf:
         a3:10:98:17:ef:f9:b4:2e:cf:8f:89:d1:51:5f:b3:56:b9:31:
         09:cf:28:b8:6e:d6:6d:fa:4c:b6:14:0b:41:9d:52:4f:ac:2f:
         2c:16:f4:16:cd:31:ed:8d:15:a8:dc:93:ef:2e:3c:de:c4:b0:
         94:8f:8a:ae:cb:92:dc:26:53:50:28:30:12:3e:5e:d6:fc:79:
         43:ca:03:ad:95:95:c8:67:8e:5f:c3:28:96:c4:bf:18:91:f4:
         99:7e:87:10:25:29:9e:bb:f7:7e:7b:2f:e8:0b:64:00:0f:7a:
         d7:67:e2:27:2e:9f:d9:80:00:ff:a5:ce:2d:83:c3:85:a9:01:
         84:79:b2:33
-----BEGIN CERTIFICATE-----
MIIE3DCCA8SgAwIBAgIBBDANBgkqhkiG9w0BAQsFADBnMQswCQYDVQQGEwJGUjER
MA8GA1UECgwIRWNob3NlbnMxDjAMBgNVBAsMBUZzcHBlMRQwEgYDVQQDDAtFY2hv
c2VucyBDQTEPMA0GA1UECAwGRnJhbmNlMQ4wDAYDVQQHDAVQYXJpczAeFw0yMTA2
MDQwODQ4MjRaFw0yMzA1MDUwODQ4MjRaMGQxCzAJBgNVBAYTAkZSMQ8wDQYDVQQI
DAZGcmFuY2UxDjAMBgNVBAcMBVBhcmlzMREwDwYDVQQKDAhFY2hvc2VuczEOMAwG
A1UECwwFRnNwcGUxETAPBgNVBAMMCEVjaG9zZW5zMIIBIjANBgkqhkiG9w0BAQEF
AAOCAQ8AMIIBCgKCAQEA2pQrujgZKU4SvD+abOYrZPeqxYb2zEBkhpW4oQK+QBys
9vpOozqTTwgUgDpIQZf8gFFrDbRVqZf/5yqZLcnqeVctrXCP6zrLFOtA0GyPaBAb
AeqjojPUXsArQM8AutgRHUJuyr4uprqYru4yiophsEz2Gu/QrIScCoXMbUC8ssNR
4hpXF8MqG5hKmOX4LYh49Z8O/dJJ86y3zHhdwvXPDra4bhbwx2vDSxh4JJn3GGzj
DzVQKRdFnS4voZQtFius4hJxRoYNJ8UM0VjZKh4AMExHKuwD6nl7xPWrKPkJvZqo
BaV3YflLEMMCdQ9vCJMw8L8JGaMAWP+W0uO7G0CthQIDAQABo4IBlDCCAZAwHQYD
VR0OBBYEFNNoY6wkov9a/d1yz1U/w9q/KcD9MIGkBgNVHSMEgZwwgZmAFD/U3fv3
cgFNPw0PVRaKFBMd9Dy9oWukaTBnMQswCQYDVQQGEwJGUjERMA8GA1UECgwIRWNo
b3NlbnMxDjAMBgNVBAsMBUZzcHBlMRQwEgYDVQQDDAtFY2hvc2VucyBDQTEPMA0G
A1UECAwGRnJhbmNlMQ4wDAYDVQQHDAVQYXJpc4IUCMjp6intrEQFYoD+eplh8Y7L
Ze8wCQYDVR0SBAIwADB0BgNVHREBAf8EajBopGYwZDELMAkGA1UEBhMCRlIxETAP
BgNVBAoMCEVjaG9zZW5zMQ4wDAYDVQQLDAVGc3BwZTERMA8GA1UEAwwIRWNob3Nl
bnMxDzANBgNVBAgMBkZyYW5jZTEOMAwGA1UEBwwFUGFyaXMwDAYDVR0TAQH/BAIw
ADAOBgNVHQ8BAf8EBAMCBaAwKQYJYIZIAYb4QgEEBBwWGmh0dHA6Ly93d3cuZmFr
ZV9jcmxfdXJsLmZyMA0GCSqGSIb3DQEBCwUAA4IBAQCpuQMX7CybpIQEniRrFWYa
IBJEghU70Ya6UqfySPhUCq3eGekHQvxNcpEl8xv8hr8T+/+gE9XYbteChklP9AER
0/Nm1lGoXG1obTjKeOTXfEQcaLY25Iii8y/8AU9nvTgJ9IW9PkU7a2UHEgnrYJUd
/h0sw7VNN4GVOMQoGs+jEJgX7/m0Ls+PidFRX7NWuTEJzyi4btZt+ky2FAtBnVJP
rC8sFvQWzTHtjRWo3JPvLjzexLCUj4quy5LcJlNQKDASPl7W/HlDygOtlZXIZ45f
wyiWxL8YkfSZfocQJSmeu/d+ey/oC2QAD3rXZ+InLp/ZgAD/pc4tg8OFqQGEebIz
-----END CERTIFICATE-----
