Certificate:
    Data:
        Version: 3 (0x2)
        Serial Number: 2 (0x2)
        Signature Algorithm: sha256WithRSAEncryption
        Issuer: C=FR, O=Echosens, OU=Fsppe, CN=Echosens CA, ST=France, L=Paris
        Validity
            Not Before: Jun  4 08:48:24 2021 GMT
            Not After : May  5 08:48:24 2023 GMT
        Subject: C=FR, ST=France, L=Paris, O=Echosens, OU=Fsppe, CN=Echosens
        Subject Public Key Info:
            Public Key Algorithm: rsaEncryption
                RSA Public-Key: (2048 bit)
                Modulus:
                    00:aa:60:a0:4b:56:74:3f:e2:69:39:6a:1f:09:44:
                    59:87:9b:94:a3:31:10:18:1e:ee:ce:94:0a:22:ff:
                    80:b2:41:38:67:27:ab:5d:9a:b1:a7:1c:55:e6:55:
                    1f:57:75:c5:7e:63:78:28:f5:0f:61:f2:88:ef:e5:
                    6d:f1:a2:38:05:6c:da:73:db:8d:39:6c:b3:e2:a4:
                    ba:a2:ec:15:05:1f:d0:6f:b9:20:13:89:18:b3:c6:
                    16:ca:d0:aa:da:1d:1d:0b:16:95:44:13:69:04:2c:
                    04:cb:f4:f4:5a:b2:34:86:9f:8b:cc:3f:8c:f6:01:
                    13:78:4f:fc:1b:4c:34:50:f6:ee:14:f3:0a:61:64:
                    4b:e8:f8:e6:cc:73:68:3e:93:f5:44:fe:be:3d:9b:
                    71:11:8a:99:8e:ed:bd:75:28:dd:7c:6f:f0:06:e0:
                    9e:49:6b:fa:62:52:3c:fc:fe:84:75:89:80:43:53:
                    33:73:e3:ca:5b:ca:74:78:ee:f5:09:21:c2:1d:46:
                    49:f7:93:1e:e1:d6:4f:5f:6a:73:ea:12:71:f2:fc:
                    35:8d:de:94:75:77:cc:c9:3b:44:3a:c9:67:ed:dd:
                    59:19:67:7b:52:b3:f9:f8:23:2f:19:09:a0:2a:e5:
                    df:0b:e0:a4:3a:67:54:81:e3:88:1f:5b:06:c6:7d:
                    31:45
                Exponent: 65537 (0x10001)
        X509v3 extensions:
            X509v3 Subject Key Identifier: 
                78:AF:0E:02:32:18:CC:57:6B:B1:24:DB:C2:80:CC:88:53:B6:B3:9E
            X509v3 Authority Key Identifier: 
                keyid:3F:D4:DD:FB:F7:72:01:4D:3F:0D:0F:55:16:8A:14:13:1D:F4:3C:BD
                DirName:/C=FR/O=Echosens/OU=Fsppe/CN=Echosens CA/ST=France/L=Paris
                serial:08:C8:E9:EA:29:ED:AC:44:05:62:80:FE:7A:99:61:F1:8E:CB:65:EF

            X509v3 Issuer Alternative Name: 
                <EMPTY>

            X509v3 Subject Alternative Name: critical
                DirName:/C=FR/O=Echosens/OU=Fsppe/CN=Echosens/ST=France/L=Paris
            X509v3 Basic Constraints: critical
                CA:FALSE
            X509v3 Key Usage: critical
                Digital Signature, Key Encipherment
            Netscape CA Revocation Url: 
                http://www.fake_crl_url.fr
    Signature Algorithm: sha256WithRSAEncryption
         87:ca:e5:d3:60:c7:cd:00:e5:d2:9e:20:c8:90:f7:e4:ee:e5:
         5d:46:a7:da:8b:6a:85:cb:56:89:88:f1:90:e5:c6:17:de:d8:
         01:24:80:c1:69:1b:42:b5:72:ef:4d:79:32:d7:21:3c:ab:52:
         e1:7b:82:00:21:a6:5e:9c:6f:ca:fe:4d:66:06:00:db:b0:5c:
         b1:3f:de:fa:5f:30:f2:b4:12:3c:fe:a7:33:f7:5c:04:a4:17:
         f4:35:ba:52:57:e8:7e:04:79:ce:c7:f7:44:ee:a5:5d:e2:85:
         a9:79:58:84:38:1b:bf:fd:a0:1d:88:3f:f2:a5:86:13:19:57:
         57:37:54:3f:a6:a9:93:ba:ed:b9:0d:ea:32:bb:f8:34:f8:1d:
         61:f5:f3:5b:54:86:33:c8:c7:a3:bf:2a:59:85:35:33:66:fe:
         10:3a:2b:75:29:34:a5:e4:00:39:cb:91:34:32:b8:0c:31:da:
         4f:4d:c0:56:8c:82:6f:1d:03:96:82:63:5b:28:07:2f:18:d8:
         e5:56:ce:22:10:1e:60:92:28:b4:7b:75:04:99:3a:60:83:a1:
         f5:db:ea:b1:75:ca:cf:16:89:26:66:6f:34:e2:9f:94:55:cf:
         72:92:61:20:07:de:7f:37:9b:c5:1b:0c:88:7a:26:eb:58:f6:
         a1:c5:86:e3
-----BEGIN CERTIFICATE-----
MIIE3DCCA8SgAwIBAgIBAjANBgkqhkiG9w0BAQsFADBnMQswCQYDVQQGEwJGUjER
MA8GA1UECgwIRWNob3NlbnMxDjAMBgNVBAsMBUZzcHBlMRQwEgYDVQQDDAtFY2hv
c2VucyBDQTEPMA0GA1UECAwGRnJhbmNlMQ4wDAYDVQQHDAVQYXJpczAeFw0yMTA2
MDQwODQ4MjRaFw0yMzA1MDUwODQ4MjRaMGQxCzAJBgNVBAYTAkZSMQ8wDQYDVQQI
DAZGcmFuY2UxDjAMBgNVBAcMBVBhcmlzMREwDwYDVQQKDAhFY2hvc2VuczEOMAwG
A1UECwwFRnNwcGUxETAPBgNVBAMMCEVjaG9zZW5zMIIBIjANBgkqhkiG9w0BAQEF
AAOCAQ8AMIIBCgKCAQEAqmCgS1Z0P+JpOWofCURZh5uUozEQGB7uzpQKIv+AskE4
ZyerXZqxpxxV5lUfV3XFfmN4KPUPYfKI7+Vt8aI4BWzac9uNOWyz4qS6ouwVBR/Q
b7kgE4kYs8YWytCq2h0dCxaVRBNpBCwEy/T0WrI0hp+LzD+M9gETeE/8G0w0UPbu
FPMKYWRL6PjmzHNoPpP1RP6+PZtxEYqZju29dSjdfG/wBuCeSWv6YlI8/P6EdYmA
Q1Mzc+PKW8p0eO71CSHCHUZJ95Me4dZPX2pz6hJx8vw1jd6UdXfMyTtEOsln7d1Z
GWd7UrP5+CMvGQmgKuXfC+CkOmdUgeOIH1sGxn0xRQIDAQABo4IBlDCCAZAwHQYD
VR0OBBYEFHivDgIyGMxXa7Ek28KAzIhTtrOeMIGkBgNVHSMEgZwwgZmAFD/U3fv3
cgFNPw0PVRaKFBMd9Dy9oWukaTBnMQswCQYDVQQGEwJGUjERMA8GA1UECgwIRWNo
b3NlbnMxDjAMBgNVBAsMBUZzcHBlMRQwEgYDVQQDDAtFY2hvc2VucyBDQTEPMA0G
A1UECAwGRnJhbmNlMQ4wDAYDVQQHDAVQYXJpc4IUCMjp6intrEQFYoD+eplh8Y7L
Ze8wCQYDVR0SBAIwADB0BgNVHREBAf8EajBopGYwZDELMAkGA1UEBhMCRlIxETAP
BgNVBAoMCEVjaG9zZW5zMQ4wDAYDVQQLDAVGc3BwZTERMA8GA1UEAwwIRWNob3Nl
bnMxDzANBgNVBAgMBkZyYW5jZTEOMAwGA1UEBwwFUGFyaXMwDAYDVR0TAQH/BAIw
ADAOBgNVHQ8BAf8EBAMCBaAwKQYJYIZIAYb4QgEEBBwWGmh0dHA6Ly93d3cuZmFr
ZV9jcmxfdXJsLmZyMA0GCSqGSIb3DQEBCwUAA4IBAQCHyuXTYMfNAOXSniDIkPfk
7uVdRqfai2qFy1aJiPGQ5cYX3tgBJIDBaRtCtXLvTXky1yE8q1Lhe4IAIaZenG/K
/k1mBgDbsFyxP976XzDytBI8/qcz91wEpBf0NbpSV+h+BHnOx/dE7qVd4oWpeViE
OBu//aAdiD/ypYYTGVdXN1Q/pqmTuu25Deoyu/g0+B1h9fNbVIYzyMejvypZhTUz
Zv4QOit1KTSl5AA5y5E0MrgMMdpPTcBWjIJvHQOWgmNbKAcvGNjlVs4iEB5gkii0
e3UEmTpgg6H12+qxdcrPFokmZm804p+UVc9ykmEgB95/N5vFGwyIeibrWPahxYbj
-----END CERTIFICATE-----
