Certificate:
    Data:
        Version: 3 (0x2)
        Serial Number: 1 (0x1)
        Signature Algorithm: sha256WithRSAEncryption
        Issuer: C=FR, O=Echosens, OU=Fsppe, CN=Echosens CA, ST=France, L=Paris
        Validity
            Not Before: Jun  4 07:06:14 2021 GMT
            Not After : May  5 07:06:14 2023 GMT
        Subject: C=FR, ST=France, L=Paris, O=Echosens, OU=Fsppe, CN=Echosens
        Subject Public Key Info:
            Public Key Algorithm: rsaEncryption
                RSA Public-Key: (2048 bit)
                Modulus:
                    00:cb:41:31:d1:8b:ca:8a:77:c9:68:55:eb:f0:c5:
                    df:1b:40:68:cb:5b:f0:04:85:22:4f:a6:23:9c:de:
                    c3:00:c9:cb:63:3a:d5:a4:0b:26:9d:c8:c7:2d:04:
                    14:fe:9c:a0:c2:d8:ed:57:4a:88:63:7f:61:bb:33:
                    c0:da:fb:4a:90:2c:00:23:8e:45:d8:21:3c:da:5a:
                    e7:ef:44:7d:b6:2f:cb:51:12:11:48:c1:39:c4:75:
                    d0:65:80:9d:c1:a4:86:68:65:c8:f2:10:f8:43:d3:
                    7d:b2:41:94:92:b0:ba:88:9a:f2:42:57:7f:c3:0f:
                    7a:ad:fb:8b:6d:7a:30:40:36:bd:19:17:da:f6:3f:
                    97:af:02:a9:d6:2f:72:31:5e:53:ef:67:b0:25:7f:
                    b9:e6:07:81:ed:a4:42:ce:5c:eb:ad:f3:9a:5c:5a:
                    66:25:94:9d:8e:ad:e0:f3:8f:16:6e:93:cd:5f:a1:
                    70:f6:05:e0:25:72:de:41:7e:c2:db:4c:bc:59:56:
                    d5:08:46:2c:76:c3:d0:91:12:32:57:4a:be:bb:96:
                    0e:24:e6:6d:7c:5c:c4:c5:72:ba:06:0c:0d:43:3b:
                    2b:dd:6f:df:57:87:1e:73:9d:96:5c:c0:cb:93:e2:
                    d6:40:62:c6:84:ff:35:79:87:74:8d:cd:d6:44:ad:
                    34:fb
                Exponent: 65537 (0x10001)
        X509v3 extensions:
            X509v3 Subject Key Identifier: 
                99:70:67:A0:30:FD:19:F4:CD:91:A8:A9:08:36:4C:DD:D3:5E:9A:2B
            X509v3 Authority Key Identifier: 
                keyid:47:16:DD:41:C0:F2:74:B1:51:D1:6A:D5:BB:90:4E:94:69:C2:13:90
                DirName:/C=FR/O=Echosens/OU=Fsppe/CN=Echosens CA/ST=France/L=Paris
                serial:72:9A:3F:2B:7C:5D:FD:CA:A5:F7:3F:4C:4D:AD:21:84:D4:41:E9:18

            X509v3 Issuer Alternative Name: 
                <EMPTY>

            X509v3 Subject Alternative Name: critical
                DirName:/C=FR/O=Echosens/OU=Fsppe/CN=Echosens/ST=France/L=Paris
            X509v3 Basic Constraints: critical
                CA:FALSE
            X509v3 Key Usage: critical
                Digital Signature, Key Encipherment
            Netscape CA Revocation Url: 
                http://www.fake_crl_url.fr
    Signature Algorithm: sha256WithRSAEncryption
         16:c1:ee:7a:ff:c9:73:6d:ac:b3:07:6c:74:b3:45:80:c6:0a:
         cb:ca:16:91:7f:f7:ba:b7:a6:73:77:17:03:f9:b4:78:fc:ae:
         73:5b:52:7d:30:a8:0f:6b:35:ca:12:36:72:09:15:33:63:2a:
         1f:be:c3:c3:aa:f0:45:f5:d9:d8:01:eb:f1:75:96:e2:7b:d8:
         96:e4:e9:71:fc:d1:80:67:d5:2c:4a:db:d5:41:4d:70:96:31:
         67:d0:37:b6:1b:0d:d2:e5:ba:7c:2a:17:63:72:83:45:ca:6c:
         d3:e1:0c:52:4e:2e:b4:4d:94:ab:6c:ef:49:83:78:3d:29:46:
         dc:38:4a:17:99:01:15:00:70:be:a0:7e:54:1f:9d:61:d0:39:
         47:db:7b:50:84:d3:20:ee:e8:4e:09:9e:9d:e7:ef:8e:f3:01:
         be:4b:fe:bc:e7:28:62:88:1e:10:3e:ac:ee:96:94:74:d5:ba:
         1b:20:68:6f:0d:2f:09:c2:aa:cc:12:2f:90:81:dc:3a:d8:07:
         92:fd:29:be:29:70:8d:42:9c:65:78:d7:c4:2d:1f:18:e2:64:
         eb:22:d1:c9:6d:8c:2f:f8:22:56:32:99:67:94:17:06:ea:a8:
         55:b0:da:0c:1d:ff:a8:1e:e8:2a:19:19:12:84:7d:de:30:8f:
         a6:e5:44:f8
-----BEGIN CERTIFICATE-----
MIIE3DCCA8SgAwIBAgIBATANBgkqhkiG9w0BAQsFADBnMQswCQYDVQQGEwJGUjER
MA8GA1UECgwIRWNob3NlbnMxDjAMBgNVBAsMBUZzcHBlMRQwEgYDVQQDDAtFY2hv
c2VucyBDQTEPMA0GA1UECAwGRnJhbmNlMQ4wDAYDVQQHDAVQYXJpczAeFw0yMTA2
MDQwNzA2MTRaFw0yMzA1MDUwNzA2MTRaMGQxCzAJBgNVBAYTAkZSMQ8wDQYDVQQI
DAZGcmFuY2UxDjAMBgNVBAcMBVBhcmlzMREwDwYDVQQKDAhFY2hvc2VuczEOMAwG
A1UECwwFRnNwcGUxETAPBgNVBAMMCEVjaG9zZW5zMIIBIjANBgkqhkiG9w0BAQEF
AAOCAQ8AMIIBCgKCAQEAy0Ex0YvKinfJaFXr8MXfG0Boy1vwBIUiT6YjnN7DAMnL
YzrVpAsmncjHLQQU/pygwtjtV0qIY39huzPA2vtKkCwAI45F2CE82lrn70R9ti/L
URIRSME5xHXQZYCdwaSGaGXI8hD4Q9N9skGUkrC6iJryQld/ww96rfuLbXowQDa9
GRfa9j+XrwKp1i9yMV5T72ewJX+55geB7aRCzlzrrfOaXFpmJZSdjq3g848WbpPN
X6Fw9gXgJXLeQX7C20y8WVbVCEYsdsPQkRIyV0q+u5YOJOZtfFzExXK6BgwNQzsr
3W/fV4cec52WXMDLk+LWQGLGhP81eYd0jc3WRK00+wIDAQABo4IBlDCCAZAwHQYD
VR0OBBYEFJlwZ6Aw/Rn0zZGoqQg2TN3TXporMIGkBgNVHSMEgZwwgZmAFEcW3UHA
8nSxUdFq1buQTpRpwhOQoWukaTBnMQswCQYDVQQGEwJGUjERMA8GA1UECgwIRWNo
b3NlbnMxDjAMBgNVBAsMBUZzcHBlMRQwEgYDVQQDDAtFY2hvc2VucyBDQTEPMA0G
A1UECAwGRnJhbmNlMQ4wDAYDVQQHDAVQYXJpc4IUcpo/K3xd/cql9z9MTa0hhNRB
6RgwCQYDVR0SBAIwADB0BgNVHREBAf8EajBopGYwZDELMAkGA1UEBhMCRlIxETAP
BgNVBAoMCEVjaG9zZW5zMQ4wDAYDVQQLDAVGc3BwZTERMA8GA1UEAwwIRWNob3Nl
bnMxDzANBgNVBAgMBkZyYW5jZTEOMAwGA1UEBwwFUGFyaXMwDAYDVR0TAQH/BAIw
ADAOBgNVHQ8BAf8EBAMCBaAwKQYJYIZIAYb4QgEEBBwWGmh0dHA6Ly93d3cuZmFr
ZV9jcmxfdXJsLmZyMA0GCSqGSIb3DQEBCwUAA4IBAQAWwe56/8lzbayzB2x0s0WA
xgrLyhaRf/e6t6ZzdxcD+bR4/K5zW1J9MKgPazXKEjZyCRUzYyofvsPDqvBF9dnY
AevxdZbie9iW5Olx/NGAZ9UsStvVQU1wljFn0De2Gw3S5bp8KhdjcoNFymzT4QxS
Ti60TZSrbO9Jg3g9KUbcOEoXmQEVAHC+oH5UH51h0DlH23tQhNMg7uhOCZ6d5++O
8wG+S/685yhiiB4QPqzulpR01bobIGhvDS8JwqrMEi+Qgdw62AeS/Sm+KXCNQpxl
eNfELR8Y4mTrItHJbYwv+CJWMplnlBcG6qhVsNoMHf+oHugqGRkShH3eMI+m5UT4
-----END CERTIFICATE-----
