Certificate:
    Data:
        Version: 3 (0x2)
        Serial Number: 2 (0x2)
        Signature Algorithm: sha256WithRSAEncryption
        Issuer: C=FR, O=Echosens, OU=Fsppe, CN=Echosens CA, ST=France, L=Paris
        Validity
            Not Before: Jun  4 07:06:14 2021 GMT
            Not After : May  5 07:06:14 2023 GMT
        Subject: C=FR, ST=France, L=Paris, O=Echosens, OU=Fsppe, CN=Echosens
        Subject Public Key Info:
            Public Key Algorithm: rsaEncryption
                RSA Public-Key: (2048 bit)
                Modulus:
                    00:c5:22:73:cb:5f:2b:82:ca:45:9c:ca:b9:42:1e:
                    6b:4c:13:5c:1d:39:84:ea:a6:9d:62:2f:96:8f:ee:
                    83:69:f4:0e:b8:1c:8c:42:96:44:f8:86:b4:77:b6:
                    f6:56:69:64:2f:33:44:cb:26:cd:a1:7a:de:27:19:
                    3e:89:fe:31:69:21:bf:ed:f4:f0:6f:08:f9:35:0f:
                    30:f5:a4:6a:a6:e5:8d:83:9d:fe:9e:39:fc:2f:9b:
                    eb:e7:7b:98:0a:13:0f:6a:b4:dd:d1:54:6d:9a:1b:
                    62:24:12:80:c0:d5:ee:96:0a:5b:cf:13:0f:11:be:
                    d6:ab:fe:18:bb:d4:55:e8:e9:77:e2:a3:f4:f4:e8:
                    dd:b8:73:2a:ad:63:67:38:54:a0:d9:9d:d5:b4:eb:
                    9e:e4:8a:03:dd:60:cf:f5:64:e5:85:94:1b:03:e2:
                    8f:be:cf:32:63:10:b1:46:2f:32:2a:a7:a9:ca:47:
                    26:6b:37:45:bd:6c:48:0a:2a:10:25:16:50:3a:61:
                    24:da:40:cf:75:10:a6:b7:23:03:01:9e:f4:6b:68:
                    e3:89:dc:ed:16:b5:39:3d:7c:40:62:c5:00:fb:1c:
                    92:51:4f:85:9b:77:1a:72:9a:69:02:04:61:b8:78:
                    47:01:53:4f:8f:94:92:0c:c3:96:a7:ef:e8:d3:43:
                    ae:f3
                Exponent: 65537 (0x10001)
        X509v3 extensions:
            X509v3 Subject Key Identifier: 
                57:70:07:AF:33:2C:93:AD:EB:BE:5B:F5:53:B2:98:02:0D:6B:B2:50
            X509v3 Authority Key Identifier: 
                keyid:47:16:DD:41:C0:F2:74:B1:51:D1:6A:D5:BB:90:4E:94:69:C2:13:90
                DirName:/C=FR/O=Echosens/OU=Fsppe/CN=Echosens CA/ST=France/L=Paris
                serial:72:9A:3F:2B:7C:5D:FD:CA:A5:F7:3F:4C:4D:AD:21:84:D4:41:E9:18

            X509v3 Issuer Alternative Name: 
                <EMPTY>

            X509v3 Subject Alternative Name: critical
                DirName:/C=FR/O=Echosens/OU=Fsppe/CN=Echosens/ST=France/L=Paris
            X509v3 Basic Constraints: critical
                CA:FALSE
            X509v3 Key Usage: critical
                Digital Signature, Key Encipherment
            Netscape CA Revocation Url: 
                http://www.fake_crl_url.fr
    Signature Algorithm: sha256WithRSAEncryption
         68:f4:a9:fe:ab:ab:d1:2b:42:f7:e8:b9:29:39:5f:44:88:a1:
         16:bb:5e:e0:55:c6:3c:5e:3e:51:17:19:10:08:90:84:85:83:
         1e:ea:2b:59:fc:87:82:9c:2d:bd:0b:ae:8c:b5:17:ba:71:84:
         2b:11:b1:10:c7:7d:e3:af:a7:db:99:1b:f4:4c:be:33:ae:96:
         90:c2:ac:85:0d:dc:2d:1a:94:80:92:54:c8:ae:a5:fd:a1:ac:
         5b:aa:12:86:0a:7d:53:54:e7:88:da:33:cc:33:22:2f:6b:d1:
         ae:16:77:bc:a1:31:f9:8e:a0:80:1e:d3:38:99:ce:ed:a3:55:
         ec:ef:5f:78:dc:62:2b:4c:8c:8c:6b:69:8a:9f:d6:9e:2e:9b:
         87:8d:6d:b5:48:9f:85:db:2f:79:c5:f9:6f:bd:10:4c:ab:cf:
         5e:4f:a1:2d:7c:cd:9b:8c:e2:39:c1:ac:5f:3e:57:12:cf:55:
         47:3d:fa:bc:02:2a:b2:d1:66:3a:b4:a8:8e:4d:54:6a:50:11:
         5d:36:29:fb:78:a5:7f:93:bd:02:f7:9c:14:97:04:e2:19:17:
         a9:2e:d1:55:62:75:1f:bf:6e:e7:62:d3:01:53:e1:73:1c:ad:
         3d:19:37:e2:c5:7d:03:2c:e4:5b:ac:78:49:27:5c:82:fe:cc:
         c5:55:ac:8d
-----BEGIN CERTIFICATE-----
MIIE3DCCA8SgAwIBAgIBAjANBgkqhkiG9w0BAQsFADBnMQswCQYDVQQGEwJGUjER
MA8GA1UECgwIRWNob3NlbnMxDjAMBgNVBAsMBUZzcHBlMRQwEgYDVQQDDAtFY2hv
c2VucyBDQTEPMA0GA1UECAwGRnJhbmNlMQ4wDAYDVQQHDAVQYXJpczAeFw0yMTA2
MDQwNzA2MTRaFw0yMzA1MDUwNzA2MTRaMGQxCzAJBgNVBAYTAkZSMQ8wDQYDVQQI
DAZGcmFuY2UxDjAMBgNVBAcMBVBhcmlzMREwDwYDVQQKDAhFY2hvc2VuczEOMAwG
A1UECwwFRnNwcGUxETAPBgNVBAMMCEVjaG9zZW5zMIIBIjANBgkqhkiG9w0BAQEF
AAOCAQ8AMIIBCgKCAQEAxSJzy18rgspFnMq5Qh5rTBNcHTmE6qadYi+Wj+6DafQO
uByMQpZE+Ia0d7b2VmlkLzNEyybNoXreJxk+if4xaSG/7fTwbwj5NQ8w9aRqpuWN
g53+njn8L5vr53uYChMParTd0VRtmhtiJBKAwNXulgpbzxMPEb7Wq/4Yu9RV6Ol3
4qP09OjduHMqrWNnOFSg2Z3VtOue5IoD3WDP9WTlhZQbA+KPvs8yYxCxRi8yKqep
ykcmazdFvWxICioQJRZQOmEk2kDPdRCmtyMDAZ70a2jjidztFrU5PXxAYsUA+xyS
UU+Fm3cacpppAgRhuHhHAVNPj5SSDMOWp+/o00Ou8wIDAQABo4IBlDCCAZAwHQYD
VR0OBBYEFFdwB68zLJOt675b9VOymAINa7JQMIGkBgNVHSMEgZwwgZmAFEcW3UHA
8nSxUdFq1buQTpRpwhOQoWukaTBnMQswCQYDVQQGEwJGUjERMA8GA1UECgwIRWNo
b3NlbnMxDjAMBgNVBAsMBUZzcHBlMRQwEgYDVQQDDAtFY2hvc2VucyBDQTEPMA0G
A1UECAwGRnJhbmNlMQ4wDAYDVQQHDAVQYXJpc4IUcpo/K3xd/cql9z9MTa0hhNRB
6RgwCQYDVR0SBAIwADB0BgNVHREBAf8EajBopGYwZDELMAkGA1UEBhMCRlIxETAP
BgNVBAoMCEVjaG9zZW5zMQ4wDAYDVQQLDAVGc3BwZTERMA8GA1UEAwwIRWNob3Nl
bnMxDzANBgNVBAgMBkZyYW5jZTEOMAwGA1UEBwwFUGFyaXMwDAYDVR0TAQH/BAIw
ADAOBgNVHQ8BAf8EBAMCBaAwKQYJYIZIAYb4QgEEBBwWGmh0dHA6Ly93d3cuZmFr
ZV9jcmxfdXJsLmZyMA0GCSqGSIb3DQEBCwUAA4IBAQBo9Kn+q6vRK0L36LkpOV9E
iKEWu17gVcY8Xj5RFxkQCJCEhYMe6itZ/IeCnC29C66MtRe6cYQrEbEQx33jr6fb
mRv0TL4zrpaQwqyFDdwtGpSAklTIrqX9oaxbqhKGCn1TVOeI2jPMMyIva9GuFne8
oTH5jqCAHtM4mc7to1Xs71943GIrTIyMa2mKn9aeLpuHjW21SJ+F2y95xflvvRBM
q89eT6EtfM2bjOI5waxfPlcSz1VHPfq8Aiqy0WY6tKiOTVRqUBFdNin7eKV/k70C
95wUlwTiGRepLtFVYnUfv27nYtMBU+FzHK09GTfixX0DLORbrHhJJ1yC/szFVayN
-----END CERTIFICATE-----
