Certificate:
    Data:
        Version: 3 (0x2)
        Serial Number: 3 (0x3)
        Signature Algorithm: sha256WithRSAEncryption
        Issuer: C=FR, O=Echosens, OU=Fsppe, CN=Echosens CA, ST=France, L=Paris
        Validity
            Not Before: Jun  4 07:06:14 2021 GMT
            Not After : May  5 07:06:14 2023 GMT
        Subject: C=FR, ST=France, L=Paris, O=Echosens, OU=Fsppe, CN=Echosens
        Subject Public Key Info:
            Public Key Algorithm: rsaEncryption
                RSA Public-Key: (2048 bit)
                Modulus:
                    00:cf:16:00:66:0c:e2:27:f6:95:35:8d:b0:a4:75:
                    5d:1d:a8:69:ba:4f:e6:0a:17:c6:52:61:08:eb:10:
                    c1:65:e2:6b:47:c3:12:c5:0f:9b:ad:0a:c3:ad:95:
                    c8:38:e7:82:3b:38:69:f7:1e:84:da:c1:8f:2b:9d:
                    1b:f6:2e:7f:1b:df:63:98:a8:b9:ad:cd:40:d7:25:
                    a9:e0:4e:ca:00:6c:99:0f:a3:c4:de:4f:d4:9c:13:
                    28:8f:53:c1:f2:85:43:b1:53:2c:12:62:ca:43:09:
                    37:9f:39:61:54:3b:21:8c:58:a9:43:15:16:7c:ee:
                    6a:c0:cd:8f:d0:a7:04:00:41:d2:6a:e5:62:49:96:
                    63:91:6b:38:ca:ad:ec:6e:a4:07:44:8b:15:86:fa:
                    13:45:64:58:04:65:4b:e3:e7:54:90:44:f0:25:a2:
                    12:9d:89:ec:0d:36:b6:66:79:e5:81:34:30:41:1a:
                    45:61:a3:78:9a:52:33:d0:ad:c6:55:f9:a0:80:1f:
                    5e:fc:62:e2:04:db:a6:5e:de:8b:61:3e:7a:b4:74:
                    5c:cc:79:56:64:75:c0:84:3e:94:42:51:5d:2f:d0:
                    d2:08:64:8c:24:42:bf:f1:59:07:40:e2:00:5e:f3:
                    8e:5e:8b:be:fb:d4:02:9d:d3:1a:4e:d7:85:bf:f8:
                    86:a7
                Exponent: 65537 (0x10001)
        X509v3 extensions:
            X509v3 Subject Key Identifier: 
                AB:4C:C6:56:2F:11:92:A1:55:0A:AE:AC:1E:1E:92:DD:3D:BF:8C:60
            X509v3 Authority Key Identifier: 
                keyid:47:16:DD:41:C0:F2:74:B1:51:D1:6A:D5:BB:90:4E:94:69:C2:13:90
                DirName:/C=FR/O=Echosens/OU=Fsppe/CN=Echosens CA/ST=France/L=Paris
                serial:72:9A:3F:2B:7C:5D:FD:CA:A5:F7:3F:4C:4D:AD:21:84:D4:41:E9:18

            X509v3 Issuer Alternative Name: 
                <EMPTY>

            X509v3 Subject Alternative Name: critical
                DirName:/C=FR/O=Echosens/OU=FsppeEnc/CN=Echosens/ST=France/L=Paris
            X509v3 Basic Constraints: critical
                CA:FALSE
            X509v3 Key Usage: critical
                Digital Signature, Key Encipherment
            Netscape CA Revocation Url: 
                http://www.fake_crl_url.fr
            Netscape Comment: 
                502f03f3-4b3d-4d2e-9306-163031334cce
    Signature Algorithm: sha256WithRSAEncryption
         5f:06:9f:1a:cb:df:b6:0f:00:18:c5:08:da:a0:4c:f8:74:72:
         c0:34:a0:74:76:d8:e2:e0:31:ca:36:de:6c:a8:2f:b4:8d:68:
         c2:6b:ce:2a:99:c7:9b:16:4b:ce:89:fc:a5:d9:41:27:f2:ec:
         a9:70:b9:4f:23:b4:ed:52:97:1f:3c:5b:95:aa:72:85:7d:fd:
         8b:09:75:b7:11:21:5c:10:5f:22:4c:b1:4d:94:f8:7d:3e:65:
         22:4e:c6:b8:d1:1b:3a:71:9d:b5:92:95:b1:4f:c8:9e:e0:ce:
         2b:3a:b1:4a:11:12:c5:1a:c0:71:6c:4f:14:0d:65:9f:37:0c:
         7b:00:aa:8b:eb:0e:54:bc:b6:29:0f:1e:05:bb:2b:35:6e:b1:
         7f:22:c9:5d:a0:f7:be:e2:6d:85:7a:c0:42:f3:c8:a4:82:dd:
         f5:24:fa:17:0d:73:a7:4d:2d:21:be:54:26:ae:2a:45:8a:f8:
         1d:02:57:57:86:84:f8:36:8a:cc:55:33:54:0f:da:0a:f6:a4:
         53:5c:dc:99:bc:95:72:9a:dd:3d:77:c9:7d:9f:69:17:6c:80:
         4e:08:b8:cb:35:69:06:ee:67:41:6f:54:bb:40:1e:4f:d8:77:
         0d:55:f7:64:c8:ec:57:86:4b:fd:a9:35:44:05:8d:a3:de:c9:
         cd:c6:01:86
-----BEGIN CERTIFICATE-----
MIIFFDCCA/ygAwIBAgIBAzANBgkqhkiG9w0BAQsFADBnMQswCQYDVQQGEwJGUjER
MA8GA1UECgwIRWNob3NlbnMxDjAMBgNVBAsMBUZzcHBlMRQwEgYDVQQDDAtFY2hv
c2VucyBDQTEPMA0GA1UECAwGRnJhbmNlMQ4wDAYDVQQHDAVQYXJpczAeFw0yMTA2
MDQwNzA2MTRaFw0yMzA1MDUwNzA2MTRaMGQxCzAJBgNVBAYTAkZSMQ8wDQYDVQQI
DAZGcmFuY2UxDjAMBgNVBAcMBVBhcmlzMREwDwYDVQQKDAhFY2hvc2VuczEOMAwG
A1UECwwFRnNwcGUxETAPBgNVBAMMCEVjaG9zZW5zMIIBIjANBgkqhkiG9w0BAQEF
AAOCAQ8AMIIBCgKCAQEAzxYAZgziJ/aVNY2wpHVdHahpuk/mChfGUmEI6xDBZeJr
R8MSxQ+brQrDrZXIOOeCOzhp9x6E2sGPK50b9i5/G99jmKi5rc1A1yWp4E7KAGyZ
D6PE3k/UnBMoj1PB8oVDsVMsEmLKQwk3nzlhVDshjFipQxUWfO5qwM2P0KcEAEHS
auViSZZjkWs4yq3sbqQHRIsVhvoTRWRYBGVL4+dUkETwJaISnYnsDTa2ZnnlgTQw
QRpFYaN4mlIz0K3GVfmggB9e/GLiBNumXt6LYT56tHRczHlWZHXAhD6UQlFdL9DS
CGSMJEK/8VkHQOIAXvOOXou++9QCndMaTteFv/iGpwIDAQABo4IBzDCCAcgwHQYD
VR0OBBYEFKtMxlYvEZKhVQqurB4ekt09v4xgMIGkBgNVHSMEgZwwgZmAFEcW3UHA
8nSxUdFq1buQTpRpwhOQoWukaTBnMQswCQYDVQQGEwJGUjERMA8GA1UECgwIRWNo
b3NlbnMxDjAMBgNVBAsMBUZzcHBlMRQwEgYDVQQDDAtFY2hvc2VucyBDQTEPMA0G
A1UECAwGRnJhbmNlMQ4wDAYDVQQHDAVQYXJpc4IUcpo/K3xd/cql9z9MTa0hhNRB
6RgwCQYDVR0SBAIwADB3BgNVHREBAf8EbTBrpGkwZzELMAkGA1UEBhMCRlIxETAP
BgNVBAoMCEVjaG9zZW5zMREwDwYDVQQLDAhGc3BwZUVuYzERMA8GA1UEAwwIRWNo
b3NlbnMxDzANBgNVBAgMBkZyYW5jZTEOMAwGA1UEBwwFUGFyaXMwDAYDVR0TAQH/
BAIwADAOBgNVHQ8BAf8EBAMCBaAwKQYJYIZIAYb4QgEEBBwWGmh0dHA6Ly93d3cu
ZmFrZV9jcmxfdXJsLmZyMDMGCWCGSAGG+EIBDQQmFiQ1MDJmMDNmMy00YjNkLTRk
MmUtOTMwNi0xNjMwMzEzMzRjY2UwDQYJKoZIhvcNAQELBQADggEBAF8GnxrL37YP
ABjFCNqgTPh0csA0oHR22OLgMco23myoL7SNaMJrziqZx5sWS86J/KXZQSfy7Klw
uU8jtO1Slx88W5WqcoV9/YsJdbcRIVwQXyJMsU2U+H0+ZSJOxrjRGzpxnbWSlbFP
yJ7gzis6sUoREsUawHFsTxQNZZ83DHsAqovrDlS8tikPHgW7KzVusX8iyV2g977i
bYV6wELzyKSC3fUk+hcNc6dNLSG+VCauKkWK+B0CV1eGhPg2isxVM1QP2gr2pFNc
3Jm8lXKa3T13yX2faRdsgE4IuMs1aQbuZ0FvVLtAHk/Ydw1V92TI7FeGS/2pNUQF
jaPeyc3GAYY=
-----END CERTIFICATE-----
