Certificate:
    Data:
        Version: 3 (0x2)
        Serial Number: 4 (0x4)
        Signature Algorithm: sha256WithRSAEncryption
        Issuer: C=FR, O=Echosens, OU=Fsppe, CN=Echosens CA, ST=France, L=Paris
        Validity
            Not Before: Jun  4 07:06:15 2021 GMT
            Not After : May  5 07:06:15 2023 GMT
        Subject: C=FR, ST=France, L=Paris, O=Echosens, OU=Fsppe, CN=Echosens
        Subject Public Key Info:
            Public Key Algorithm: rsaEncryption
                RSA Public-Key: (2048 bit)
                Modulus:
                    00:e1:bc:89:db:73:d3:db:34:51:62:bf:37:4f:f5:
                    ed:43:94:74:77:0d:95:fc:6e:90:7c:b0:de:1b:95:
                    ef:2b:db:8d:f0:40:2f:20:d9:66:1c:2c:7e:dc:90:
                    9b:00:b5:08:34:27:1c:f5:b6:4a:1e:47:ae:d0:4b:
                    c4:07:e8:69:d0:ed:97:d7:92:20:f3:ef:de:0a:b6:
                    9d:47:66:22:56:a5:2f:d0:20:cd:df:2f:cd:b9:0b:
                    9c:3e:a6:08:20:7a:e4:29:b6:98:dc:d2:ae:b2:8b:
                    31:5d:7a:41:57:0b:2e:d9:a8:f4:1d:12:6a:21:13:
                    c5:b5:3a:7e:f2:78:65:0d:5a:65:41:b2:4e:38:ab:
                    e3:42:71:c7:94:d9:8a:85:f3:aa:dd:1e:7c:9d:a3:
                    6a:a9:1b:8d:f2:f9:97:49:20:c7:07:ff:c2:1c:43:
                    8e:eb:b5:0b:63:cc:81:7e:77:b3:ba:57:ae:9c:24:
                    6e:fe:5d:81:9c:5e:61:bf:d9:7e:8b:f4:86:26:88:
                    ed:8c:00:bc:66:4a:21:59:e1:66:46:e4:a2:3a:df:
                    25:a6:75:3b:88:0a:24:34:38:11:20:fa:c2:f9:54:
                    24:48:98:7d:40:b5:4e:4a:44:2a:99:51:1d:07:b1:
                    d7:d3:1a:e0:44:30:d3:d1:31:05:a5:5c:45:b1:76:
                    50:67
                Exponent: 65537 (0x10001)
        X509v3 extensions:
            X509v3 Subject Key Identifier: 
                E0:A8:53:41:F8:C1:EC:9D:09:22:1F:8F:14:48:E0:10:E4:88:16:A1
            X509v3 Authority Key Identifier: 
                keyid:47:16:DD:41:C0:F2:74:B1:51:D1:6A:D5:BB:90:4E:94:69:C2:13:90
                DirName:/C=FR/O=Echosens/OU=Fsppe/CN=Echosens CA/ST=France/L=Paris
                serial:72:9A:3F:2B:7C:5D:FD:CA:A5:F7:3F:4C:4D:AD:21:84:D4:41:E9:18

            X509v3 Issuer Alternative Name: 
                <EMPTY>

            X509v3 Subject Alternative Name: critical
                DirName:/C=FR/O=Echosens/OU=Fsppe/CN=Echosens/ST=France/L=Paris
            X509v3 Basic Constraints: critical
                CA:FALSE
            X509v3 Key Usage: critical
                Digital Signature, Key Encipherment
            Netscape CA Revocation Url: 
                http://www.fake_crl_url.fr
    Signature Algorithm: sha256WithRSAEncryption
         55:b8:6f:9d:62:52:7a:62:26:98:f7:26:32:b3:d0:59:1d:ae:
         99:9b:ba:e4:27:bd:e1:4a:b2:9d:8a:12:c9:fd:77:33:f9:64:
         bc:20:76:35:89:a9:16:38:96:ff:74:55:e0:e9:e2:63:d3:40:
         43:bb:9a:8b:e3:d1:28:85:4c:dc:83:f2:27:51:18:42:8e:05:
         00:28:cc:8a:4a:c2:33:0b:eb:6d:fa:5a:7a:7f:7c:c5:e5:71:
         06:fa:dc:9c:64:f1:52:5e:b1:fb:7f:c1:6e:3f:1d:69:37:4b:
         04:19:ce:d8:53:a9:2e:67:4f:b1:2f:30:db:51:3e:19:4d:43:
         3f:d7:3b:b4:65:6e:0e:e0:9d:8a:a2:51:ed:27:3c:ef:ec:dd:
         f9:72:ff:ab:cc:56:67:96:ac:78:da:fe:d3:e9:c7:31:04:2e:
         8d:82:9b:64:11:cb:c0:3e:4b:ff:11:b3:a2:4e:7d:a3:8b:14:
         98:02:1b:16:4f:dd:f5:ec:a5:d9:0f:05:94:f2:f9:11:93:3f:
         5b:00:6b:59:8e:a5:26:08:69:de:d3:18:51:5b:fd:8f:2c:5d:
         bf:f8:a4:87:5e:fb:19:59:1d:e8:fa:f6:7b:fc:d3:c6:c4:56:
         29:7f:81:5f:8e:fe:5b:a9:b9:d4:64:44:03:1c:f7:ae:78:ed:
         d3:43:35:8d
-----BEGIN CERTIFICATE-----
MIIE3DCCA8SgAwIBAgIBBDANBgkqhkiG9w0BAQsFADBnMQswCQYDVQQGEwJGUjER
MA8GA1UECgwIRWNob3NlbnMxDjAMBgNVBAsMBUZzcHBlMRQwEgYDVQQDDAtFY2hv
c2VucyBDQTEPMA0GA1UECAwGRnJhbmNlMQ4wDAYDVQQHDAVQYXJpczAeFw0yMTA2
MDQwNzA2MTVaFw0yMzA1MDUwNzA2MTVaMGQxCzAJBgNVBAYTAkZSMQ8wDQYDVQQI
DAZGcmFuY2UxDjAMBgNVBAcMBVBhcmlzMREwDwYDVQQKDAhFY2hvc2VuczEOMAwG
A1UECwwFRnNwcGUxETAPBgNVBAMMCEVjaG9zZW5zMIIBIjANBgkqhkiG9w0BAQEF
AAOCAQ8AMIIBCgKCAQEA4byJ23PT2zRRYr83T/XtQ5R0dw2V/G6QfLDeG5XvK9uN
8EAvINlmHCx+3JCbALUINCcc9bZKHkeu0EvEB+hp0O2X15Ig8+/eCradR2YiVqUv
0CDN3y/NuQucPqYIIHrkKbaY3NKusosxXXpBVwsu2aj0HRJqIRPFtTp+8nhlDVpl
QbJOOKvjQnHHlNmKhfOq3R58naNqqRuN8vmXSSDHB//CHEOO67ULY8yBfnezuleu
nCRu/l2BnF5hv9l+i/SGJojtjAC8ZkohWeFmRuSiOt8lpnU7iAokNDgRIPrC+VQk
SJh9QLVOSkQqmVEdB7HX0xrgRDDT0TEFpVxFsXZQZwIDAQABo4IBlDCCAZAwHQYD
VR0OBBYEFOCoU0H4weydCSIfjxRI4BDkiBahMIGkBgNVHSMEgZwwgZmAFEcW3UHA
8nSxUdFq1buQTpRpwhOQoWukaTBnMQswCQYDVQQGEwJGUjERMA8GA1UECgwIRWNo
b3NlbnMxDjAMBgNVBAsMBUZzcHBlMRQwEgYDVQQDDAtFY2hvc2VucyBDQTEPMA0G
A1UECAwGRnJhbmNlMQ4wDAYDVQQHDAVQYXJpc4IUcpo/K3xd/cql9z9MTa0hhNRB
6RgwCQYDVR0SBAIwADB0BgNVHREBAf8EajBopGYwZDELMAkGA1UEBhMCRlIxETAP
BgNVBAoMCEVjaG9zZW5zMQ4wDAYDVQQLDAVGc3BwZTERMA8GA1UEAwwIRWNob3Nl
bnMxDzANBgNVBAgMBkZyYW5jZTEOMAwGA1UEBwwFUGFyaXMwDAYDVR0TAQH/BAIw
ADAOBgNVHQ8BAf8EBAMCBaAwKQYJYIZIAYb4QgEEBBwWGmh0dHA6Ly93d3cuZmFr
ZV9jcmxfdXJsLmZyMA0GCSqGSIb3DQEBCwUAA4IBAQBVuG+dYlJ6YiaY9yYys9BZ
Ha6Zm7rkJ73hSrKdihLJ/Xcz+WS8IHY1iakWOJb/dFXg6eJj00BDu5qL49EohUzc
g/InURhCjgUAKMyKSsIzC+tt+lp6f3zF5XEG+tycZPFSXrH7f8FuPx1pN0sEGc7Y
U6kuZ0+xLzDbUT4ZTUM/1zu0ZW4O4J2KolHtJzzv7N35cv+rzFZnlqx42v7T6ccx
BC6NgptkEcvAPkv/EbOiTn2jixSYAhsWT9317KXZDwWU8vkRkz9bAGtZjqUmCGne
0xhRW/2PLF2/+KSHXvsZWR3o+vZ7/NPGxFYpf4Ffjv5bqbnUZEQDHPeueO3TQzWN
-----END CERTIFICATE-----
